; Function Attrs: mustprogress nofree norecurse nosync nounwind memory(readwrite, inaccessiblemem: none) uwtable
define internal void @_ZN13duckdb_yyjsonL8dyn_freeEPvS0_(ptr noundef captures(address) %0, ptr noundef %1) #4 {
  %3 = getelementptr inbounds i8, ptr %1, i64 -16
  %4 = getelementptr inbounds nuw i8, ptr %0, i64 16
  br label %5

5:                                                ; preds = %6, %2
  %.010.i = phi ptr [ %4, %2 ], [ %.0.i, %6 ]
  %.0.in.i = getelementptr inbounds nuw i8, ptr %.010.i, i64 8
  %.0.i = load ptr, ptr %.0.in.i, align 8, !tbaa !33
  %.not.i = icmp eq ptr %.0.i, null
  br i1 %.not.i, label %_ZN13duckdb_yyjsonL21dyn_chunk_list_removeEPNS_9dyn_chunkES1_.exit.preheader, label %6

6:                                                ; preds = %5
  %7 = icmp eq ptr %.0.i, %3
  br i1 %7, label %8, label %5, !llvm.loop !35

8:                                                ; preds = %6
  %.0.in.i.le = getelementptr inbounds nuw i8, ptr %.010.i, i64 8
  %9 = getelementptr inbounds nuw i8, ptr %.0.i, i64 8
  %10 = load ptr, ptr %9, align 8, !tbaa !33
  store ptr %10, ptr %.0.in.i.le, align 8, !tbaa !33
  store ptr null, ptr %9, align 8, !tbaa !33
  br label %_ZN13duckdb_yyjsonL21dyn_chunk_list_removeEPNS_9dyn_chunkES1_.exit.preheader

_ZN13duckdb_yyjsonL21dyn_chunk_list_removeEPNS_9dyn_chunkES1_.exit.preheader: ; preds = %5, %8
  br label %_ZN13duckdb_yyjsonL21dyn_chunk_list_removeEPNS_9dyn_chunkES1_.exit

_ZN13duckdb_yyjsonL21dyn_chunk_list_removeEPNS_9dyn_chunkES1_.exit: ; preds = %_ZN13duckdb_yyjsonL21dyn_chunk_list_removeEPNS_9dyn_chunkES1_.exit.preheader, %14
  %.0 = phi ptr [ %13, %14 ], [ %0, %_ZN13duckdb_yyjsonL21dyn_chunk_list_removeEPNS_9dyn_chunkES1_.exit.preheader ]
  %.not = icmp eq ptr %.0, null
  br i1 %.not, label %.loopexit, label %11

11:                                               ; preds = %_ZN13duckdb_yyjsonL21dyn_chunk_list_removeEPNS_9dyn_chunkES1_.exit
  %12 = getelementptr inbounds nuw i8, ptr %.0, i64 8
  %13 = load ptr, ptr %12, align 8, !tbaa !33
  %.not15 = icmp eq ptr %13, null
  br i1 %.not15, label %17, label %14

14:                                               ; preds = %11
  %15 = load i64, ptr %13, align 8, !tbaa !32
  %16 = load i64, ptr %3, align 8, !tbaa !32
  %.not16 = icmp ult i64 %15, %16
  br i1 %.not16, label %_ZN13duckdb_yyjsonL21dyn_chunk_list_removeEPNS_9dyn_chunkES1_.exit, label %17, !llvm.loop !36

17:                                               ; preds = %14, %11
  %18 = getelementptr inbounds nuw i8, ptr %.0, i64 8
  %19 = getelementptr inbounds i8, ptr %1, i64 -8
  store ptr %13, ptr %19, align 8, !tbaa !33
  store ptr %3, ptr %18, align 8, !tbaa !33
  br label %.loopexit

.loopexit:                                        ; preds = %_ZN13duckdb_yyjsonL21dyn_chunk_list_removeEPNS_9dyn_chunkES1_.exit, %17
  ret void
}